target datalayout = "e-m:e-p270:32:32-p271:32:32-p272:64:64-i64:64-i128:128-f80:128-n8:16:32:64-S128"
target triple = "x86_64-pc-linux-gnu"

%"class.cv::BmpDecoder" = type { %"class.cv::BaseImageDecoder", %"class.cv::RLByteStream", [256 x %"struct.cv::PaletteEntry"], i32, i32, i32, i32, [4 x i32], [4 x i32], [4 x float] }
%"class.cv::BaseImageDecoder" = type { ptr, i32, i32, i32, i32, %"class.std::__cxx11::basic_string", %"class.std::__cxx11::basic_string", %"class.cv::Mat", i8, i8, [6 x i8], %"class.cv::ExifReader", i64, %"struct.cv::Animation" }
%"class.std::__cxx11::basic_string" = type { %"struct.std::__cxx11::basic_string<char>::_Alloc_hider", i64, %union.anon }
%"struct.std::__cxx11::basic_string<char>::_Alloc_hider" = type { ptr }
%union.anon = type { i64, [8 x i8] }
%"class.cv::Mat" = type { i32, i32, i32, i32, ptr, ptr, ptr, ptr, ptr, ptr, %"struct.cv::MatSize", %"struct.cv::MatStep" }
%"struct.cv::MatSize" = type { ptr }
%"struct.cv::MatStep" = type { ptr, [2 x i64] }
%"class.cv::ExifReader" = type <{ %"class.std::vector", %"class.std::map", i32, [4 x i8] }>
%"class.std::vector" = type { %"struct.std::_Vector_base" }
%"struct.std::_Vector_base" = type { %"struct.std::_Vector_base<unsigned char, std::allocator<unsigned char>>::_Vector_impl" }
%"struct.std::_Vector_base<unsigned char, std::allocator<unsigned char>>::_Vector_impl" = type { %"struct.std::_Vector_base<unsigned char, std::allocator<unsigned char>>::_Vector_impl_data" }
%"struct.std::_Vector_base<unsigned char, std::allocator<unsigned char>>::_Vector_impl_data" = type { ptr, ptr, ptr }
%"class.std::map" = type { %"class.std::_Rb_tree" }
%"class.std::_Rb_tree" = type { %"struct.std::_Rb_tree<int, std::pair<const int, cv::ExifEntry_t>, std::_Select1st<std::pair<const int, cv::ExifEntry_t>>, std::less<int>>::_Rb_tree_impl" }
%"struct.std::_Rb_tree<int, std::pair<const int, cv::ExifEntry_t>, std::_Select1st<std::pair<const int, cv::ExifEntry_t>>, std::less<int>>::_Rb_tree_impl" = type { [8 x i8], %"struct.std::_Rb_tree_header" }
%"struct.std::_Rb_tree_header" = type { %"struct.std::_Rb_tree_node_base", i64 }
%"struct.std::_Rb_tree_node_base" = type { i32, ptr, ptr, ptr }
%"struct.cv::Animation" = type { i32, %"class.cv::Scalar_", %"class.std::vector.6", %"class.std::vector.11" }
%"class.cv::Scalar_" = type { %"class.cv::Vec" }
%"class.cv::Vec" = type { %"class.cv::Matx" }
%"class.cv::Matx" = type { [4 x double] }
%"class.std::vector.6" = type { %"struct.std::_Vector_base.7" }
%"struct.std::_Vector_base.7" = type { %"struct.std::_Vector_base<int, std::allocator<int>>::_Vector_impl" }
%"struct.std::_Vector_base<int, std::allocator<int>>::_Vector_impl" = type { %"struct.std::_Vector_base<int, std::allocator<int>>::_Vector_impl_data" }
%"struct.std::_Vector_base<int, std::allocator<int>>::_Vector_impl_data" = type { ptr, ptr, ptr }
%"class.std::vector.11" = type { %"struct.std::_Vector_base.12" }
%"struct.std::_Vector_base.12" = type { %"struct.std::_Vector_base<cv::Mat, std::allocator<cv::Mat>>::_Vector_impl" }
%"struct.std::_Vector_base<cv::Mat, std::allocator<cv::Mat>>::_Vector_impl" = type { %"struct.std::_Vector_base<cv::Mat, std::allocator<cv::Mat>>::_Vector_impl_data" }
%"struct.std::_Vector_base<cv::Mat, std::allocator<cv::Mat>>::_Vector_impl_data" = type { ptr, ptr, ptr }
%"class.cv::RLByteStream" = type { %"class.cv::RBaseStream.base", [7 x i8] }
%"class.cv::RBaseStream.base" = type <{ ptr, i8, [7 x i8], ptr, ptr, ptr, ptr, i32, i32, i8 }>
%"struct.cv::PaletteEntry" = type { i8, i8, i8, i8 }

; Function Attrs: mustprogress nounwind uwtable
define hidden void @_ZN2cv10BmpDecoder14maskBGRAtoGrayEPhPKhi(ptr noundef nonnull align 8 dereferenceable(1520) %0, ptr noundef %1, ptr noundef %2, i32 noundef %3) #6 align 2 {
  %5 = alloca ptr, align 8
  %6 = alloca ptr, align 8
  %7 = alloca ptr, align 8
  %8 = alloca i32, align 4
  %9 = alloca i32, align 4
  %10 = alloca i32, align 4
  %11 = alloca i32, align 4
  %12 = alloca i32, align 4
  %13 = alloca i32, align 4
  store ptr %0, ptr %5, align 8, !tbaa !3
  store ptr %1, ptr %6, align 8, !tbaa !10
  store ptr %2, ptr %7, align 8, !tbaa !10
  store i32 %3, ptr %8, align 4, !tbaa !80
  %14 = load ptr, ptr %5, align 8
  call void @llvm.lifetime.start.p0(i64 4, ptr %9) #3
  store i32 0, ptr %9, align 4, !tbaa !80
  br label %15

15:                                               ; preds = %82, %4
  %16 = load i32, ptr %9, align 4, !tbaa !80
  %17 = load i32, ptr %8, align 4, !tbaa !80
  %18 = icmp slt i32 %16, %17
  br i1 %18, label %20, label %19

19:                                               ; preds = %15
  call void @llvm.lifetime.end.p0(i64 4, ptr %9) #3
  br label %89

20:                                               ; preds = %15
  call void @llvm.lifetime.start.p0(i64 4, ptr %10) #3
  %21 = load ptr, ptr %7, align 8, !tbaa !10
  %22 = load i32, ptr %21, align 4, !tbaa !80
  store i32 %22, ptr %10, align 4, !tbaa !80
  call void @llvm.lifetime.start.p0(i64 4, ptr %11) #3
  %23 = getelementptr inbounds nuw %"class.cv::BmpDecoder", ptr %14, i32 0, i32 7
  %24 = getelementptr inbounds [4 x i32], ptr %23, i64 0, i64 0
  %25 = load i32, ptr %24, align 8, !tbaa !80
  %26 = load i32, ptr %10, align 4, !tbaa !80
  %27 = and i32 %25, %26
  %28 = getelementptr inbounds nuw %"class.cv::BmpDecoder", ptr %14, i32 0, i32 8
  %29 = getelementptr inbounds [4 x i32], ptr %28, i64 0, i64 0
  %30 = load i32, ptr %29, align 8, !tbaa !80
  %31 = lshr i32 %27, %30
  %32 = uitofp i32 %31 to float
  %33 = getelementptr inbounds nuw %"class.cv::BmpDecoder", ptr %14, i32 0, i32 9
  %34 = getelementptr inbounds [4 x float], ptr %33, i64 0, i64 0
  %35 = load float, ptr %34, align 8, !tbaa !69
  %36 = fmul float %32, %35
  %37 = fptoui float %36 to i8
  %38 = zext i8 %37 to i32
  store i32 %38, ptr %11, align 4, !tbaa !80
  call void @llvm.lifetime.start.p0(i64 4, ptr %12) #3
  %39 = getelementptr inbounds nuw %"class.cv::BmpDecoder", ptr %14, i32 0, i32 7
  %40 = getelementptr inbounds [4 x i32], ptr %39, i64 0, i64 1
  %41 = load i32, ptr %40, align 4, !tbaa !80
  %42 = load i32, ptr %10, align 4, !tbaa !80
  %43 = and i32 %41, %42
  %44 = getelementptr inbounds nuw %"class.cv::BmpDecoder", ptr %14, i32 0, i32 8
  %45 = getelementptr inbounds [4 x i32], ptr %44, i64 0, i64 1
  %46 = load i32, ptr %45, align 4, !tbaa !80
  %47 = lshr i32 %43, %46
  %48 = uitofp i32 %47 to float
  %49 = getelementptr inbounds nuw %"class.cv::BmpDecoder", ptr %14, i32 0, i32 9
  %50 = getelementptr inbounds [4 x float], ptr %49, i64 0, i64 1
  %51 = load float, ptr %50, align 4, !tbaa !69
  %52 = fmul float %48, %51
  %53 = fptoui float %52 to i8
  %54 = zext i8 %53 to i32
  store i32 %54, ptr %12, align 4, !tbaa !80
  call void @llvm.lifetime.start.p0(i64 4, ptr %13) #3
  %55 = getelementptr inbounds nuw %"class.cv::BmpDecoder", ptr %14, i32 0, i32 7
  %56 = getelementptr inbounds [4 x i32], ptr %55, i64 0, i64 2
  %57 = load i32, ptr %56, align 8, !tbaa !80
  %58 = load i32, ptr %10, align 4, !tbaa !80
  %59 = and i32 %57, %58
  %60 = getelementptr inbounds nuw %"class.cv::BmpDecoder", ptr %14, i32 0, i32 8
  %61 = getelementptr inbounds [4 x i32], ptr %60, i64 0, i64 2
  %62 = load i32, ptr %61, align 8, !tbaa !80
  %63 = lshr i32 %59, %62
  %64 = uitofp i32 %63 to float
  %65 = getelementptr inbounds nuw %"class.cv::BmpDecoder", ptr %14, i32 0, i32 9
  %66 = getelementptr inbounds [4 x float], ptr %65, i64 0, i64 2
  %67 = load float, ptr %66, align 8, !tbaa !69
  %68 = fmul float %64, %67
  %69 = fptoui float %68 to i8
  %70 = zext i8 %69 to i32
  store i32 %70, ptr %13, align 4, !tbaa !80
  %71 = load i32, ptr %11, align 4, !tbaa !80
  %72 = sitofp i32 %71 to float
  %73 = load i32, ptr %12, align 4, !tbaa !80
  %74 = sitofp i32 %73 to float
  %75 = fmul float 0x3FE2C8B440000000, %74
  %76 = call float @llvm.fmuladd.f32(float 0x3FD322D0E0000000, float %72, float %75)
  %77 = load i32, ptr %13, align 4, !tbaa !80
  %78 = sitofp i32 %77 to float
  %79 = call float @llvm.fmuladd.f32(float 0x3FBD2F1AA0000000, float %78, float %76)
  %80 = fptoui float %79 to i8
  %81 = load ptr, ptr %6, align 8, !tbaa !10
  store i8 %80, ptr %81, align 1, !tbaa !85
  call void @llvm.lifetime.end.p0(i64 4, ptr %13) #3
  call void @llvm.lifetime.end.p0(i64 4, ptr %12) #3
  call void @llvm.lifetime.end.p0(i64 4, ptr %11) #3
  call void @llvm.lifetime.end.p0(i64 4, ptr %10) #3
  br label %82

82:                                               ; preds = %20
  %83 = load i32, ptr %9, align 4, !tbaa !80
  %84 = add nsw i32 %83, 1
  store i32 %84, ptr %9, align 4, !tbaa !80
  %85 = load ptr, ptr %6, align 8, !tbaa !10
  %86 = getelementptr inbounds nuw i8, ptr %85, i32 1
  store ptr %86, ptr %6, align 8, !tbaa !10
  %87 = load ptr, ptr %7, align 8, !tbaa !10
  %88 = getelementptr inbounds i8, ptr %87, i64 4
  store ptr %88, ptr %7, align 8, !tbaa !10
  br label %15, !llvm.loop !124

89:                                               ; preds = %19
  ret void
}