; Function Attrs: mustprogress nofree norecurse nosync nounwind memory(argmem: readwrite) uwtable
define hidden void @_ZN2cv10BmpDecoder14maskBGRAtoGrayEPhPKhi(ptr noundef nonnull readonly align 8 captures(none) dereferenceable(1520) %0, ptr noundef writeonly captures(none) %1, ptr noundef readonly captures(none) %2, i32 noundef %3) local_unnamed_addr #14 align 2 {
  %5 = icmp sgt i32 %3, 0
  br i1 %5, label %.lr.ph, label %._crit_edge

.lr.ph:                                           ; preds = %4
  %6 = getelementptr inbounds nuw i8, ptr %0, i64 1472
  %7 = getelementptr inbounds nuw i8, ptr %0, i64 1488
  %8 = getelementptr inbounds nuw i8, ptr %0, i64 1504
  %9 = getelementptr inbounds nuw i8, ptr %0, i64 1476
  %10 = getelementptr inbounds nuw i8, ptr %0, i64 1492
  %11 = getelementptr inbounds nuw i8, ptr %0, i64 1508
  %12 = getelementptr inbounds nuw i8, ptr %0, i64 1480
  %13 = getelementptr inbounds nuw i8, ptr %0, i64 1496
  %14 = getelementptr inbounds nuw i8, ptr %0, i64 1512
  br label %15

._crit_edge:                                      ; preds = %15, %4
  ret void

15:                                               ; preds = %.lr.ph, %15
  %.017 = phi ptr [ %1, %.lr.ph ], [ %49, %15 ]
  %.01316 = phi ptr [ %2, %.lr.ph ], [ %50, %15 ]
  %.01415 = phi i32 [ 0, %.lr.ph ], [ %48, %15 ]
  %16 = load i32, ptr %.01316, align 4, !tbaa !84
  %17 = load i32, ptr %6, align 8, !tbaa !84
  %18 = and i32 %17, %16
  %19 = load i32, ptr %7, align 8, !tbaa !84
  %20 = lshr i32 %18, %19
  %21 = uitofp i32 %20 to float
  %22 = load float, ptr %8, align 8, !tbaa !61
  %23 = fmul float %22, %21
  %24 = fptoui float %23 to i8
  %25 = load i32, ptr %9, align 4, !tbaa !84
  %26 = and i32 %25, %16
  %27 = load i32, ptr %10, align 4, !tbaa !84
  %28 = lshr i32 %26, %27
  %29 = uitofp i32 %28 to float
  %30 = load float, ptr %11, align 4, !tbaa !61
  %31 = fmul float %30, %29
  %32 = fptoui float %31 to i8
  %33 = load i32, ptr %12, align 8, !tbaa !84
  %34 = and i32 %33, %16
  %35 = load i32, ptr %13, align 8, !tbaa !84
  %36 = lshr i32 %34, %35
  %37 = uitofp i32 %36 to float
  %38 = load float, ptr %14, align 8, !tbaa !61
  %39 = fmul float %38, %37
  %40 = fptoui float %39 to i8
  %41 = uitofp i8 %24 to float
  %42 = uitofp i8 %32 to float
  %43 = fmul float %42, 0x3FE2C8B440000000
  %44 = tail call float @llvm.fmuladd.f32(float %41, float 0x3FD322D0E0000000, float %43)
  %45 = uitofp i8 %40 to float
  %46 = tail call float @llvm.fmuladd.f32(float %45, float 0x3FBD2F1AA0000000, float %44)
  %47 = fptoui float %46 to i8
  store i8 %47, ptr %.017, align 1, !tbaa !87
  %48 = add nuw nsw i32 %.01415, 1
  %49 = getelementptr inbounds nuw i8, ptr %.017, i64 1
  %50 = getelementptr inbounds nuw i8, ptr %.01316, i64 4
  %exitcond.not = icmp eq i32 %48, %3
  br i1 %exitcond.not, label %._crit_edge, label %15, !llvm.loop !110
}